target datalayout = "e-m:e-p270:32:32-p271:32:32-p272:64:64-i64:64-i128:128-f80:128-n8:16:32:64-S128"
target triple = "x86_64-pc-linux-gnu"

%struct.VP8BitWriter = type { i32, i32, i32, i32, ptr, i64, i64, i32 }

; Function Attrs: nounwind uwtable
define internal i32 @BitWriterResize(ptr noundef %0, i64 noundef %1) #0 {
  %3 = alloca i32, align 4
  %4 = alloca ptr, align 8
  %5 = alloca i64, align 8
  %6 = alloca ptr, align 8
  %7 = alloca i64, align 8
  %8 = alloca i64, align 8
  %9 = alloca i64, align 8
  %10 = alloca i32, align 4
  store ptr %0, ptr %4, align 8, !tbaa !3
  store i64 %1, ptr %5, align 8, !tbaa !18
  call void @llvm.lifetime.start.p0(i64 8, ptr %6) #6
  call void @llvm.lifetime.start.p0(i64 8, ptr %7) #6
  call void @llvm.lifetime.start.p0(i64 8, ptr %8) #6
  %11 = load ptr, ptr %4, align 8, !tbaa !3
  %12 = getelementptr inbounds nuw %struct.VP8BitWriter, ptr %11, i32 0, i32 5
  %13 = load i64, ptr %12, align 8, !tbaa !17
  %14 = load i64, ptr %5, align 8, !tbaa !18
  %15 = add i64 %13, %14
  store i64 %15, ptr %8, align 8, !tbaa !18
  call void @llvm.lifetime.start.p0(i64 8, ptr %9) #6
  %16 = load i64, ptr %8, align 8, !tbaa !18
  store i64 %16, ptr %9, align 8, !tbaa !18
  %17 = load i64, ptr %8, align 8, !tbaa !18
  %18 = load i64, ptr %9, align 8, !tbaa !18
  %19 = icmp ne i64 %17, %18
  br i1 %19, label %20, label %23

20:                                               ; preds = %2
  %21 = load ptr, ptr %4, align 8, !tbaa !3
  %22 = getelementptr inbounds nuw %struct.VP8BitWriter, ptr %21, i32 0, i32 7
  store i32 1, ptr %22, align 8, !tbaa !25
  store i32 0, ptr %3, align 4
  store i32 1, ptr %10, align 4
  br label %75

23:                                               ; preds = %2
  %24 = load i64, ptr %9, align 8, !tbaa !18
  %25 = load ptr, ptr %4, align 8, !tbaa !3
  %26 = getelementptr inbounds nuw %struct.VP8BitWriter, ptr %25, i32 0, i32 6
  %27 = load i64, ptr %26, align 8, !tbaa !24
  %28 = icmp ule i64 %24, %27
  br i1 %28, label %29, label %30

29:                                               ; preds = %23
  store i32 1, ptr %3, align 4
  store i32 1, ptr %10, align 4
  br label %75

30:                                               ; preds = %23
  %31 = load ptr, ptr %4, align 8, !tbaa !3
  %32 = getelementptr inbounds nuw %struct.VP8BitWriter, ptr %31, i32 0, i32 6
  %33 = load i64, ptr %32, align 8, !tbaa !24
  %34 = mul i64 2, %33
  store i64 %34, ptr %7, align 8, !tbaa !18
  %35 = load i64, ptr %7, align 8, !tbaa !18
  %36 = load i64, ptr %9, align 8, !tbaa !18
  %37 = icmp ult i64 %35, %36
  br i1 %37, label %38, label %40

38:                                               ; preds = %30
  %39 = load i64, ptr %9, align 8, !tbaa !18
  store i64 %39, ptr %7, align 8, !tbaa !18
  br label %40

40:                                               ; preds = %38, %30
  %41 = load i64, ptr %7, align 8, !tbaa !18
  %42 = icmp ult i64 %41, 1024
  br i1 %42, label %43, label %44

43:                                               ; preds = %40
  store i64 1024, ptr %7, align 8, !tbaa !18
  br label %44

44:                                               ; preds = %43, %40
  %45 = load i64, ptr %7, align 8, !tbaa !18
  %46 = call ptr @WebPSafeMalloc(i64 noundef 1, i64 noundef %45)
  store ptr %46, ptr %6, align 8, !tbaa !26
  %47 = load ptr, ptr %6, align 8, !tbaa !26
  %48 = icmp eq ptr %47, null
  br i1 %48, label %49, label %52

49:                                               ; preds = %44
  %50 = load ptr, ptr %4, align 8, !tbaa !3
  %51 = getelementptr inbounds nuw %struct.VP8BitWriter, ptr %50, i32 0, i32 7
  store i32 1, ptr %51, align 8, !tbaa !25
  store i32 0, ptr %3, align 4
  store i32 1, ptr %10, align 4
  br label %75

52:                                               ; preds = %44
  %53 = load ptr, ptr %4, align 8, !tbaa !3
  %54 = getelementptr inbounds nuw %struct.VP8BitWriter, ptr %53, i32 0, i32 5
  %55 = load i64, ptr %54, align 8, !tbaa !17
  %56 = icmp ugt i64 %55, 0
  br i1 %56, label %57, label %65

57:                                               ; preds = %52
  %58 = load ptr, ptr %6, align 8, !tbaa !26
  %59 = load ptr, ptr %4, align 8, !tbaa !3
  %60 = getelementptr inbounds nuw %struct.VP8BitWriter, ptr %59, i32 0, i32 4
  %61 = load ptr, ptr %60, align 8, !tbaa !20
  %62 = load ptr, ptr %4, align 8, !tbaa !3
  %63 = getelementptr inbounds nuw %struct.VP8BitWriter, ptr %62, i32 0, i32 5
  %64 = load i64, ptr %63, align 8, !tbaa !17
  call void @llvm.memcpy.p0.p0.i64(ptr align 1 %58, ptr align 1 %61, i64 %64, i1 false)
  br label %65

65:                                               ; preds = %57, %52
  %66 = load ptr, ptr %4, align 8, !tbaa !3
  %67 = getelementptr inbounds nuw %struct.VP8BitWriter, ptr %66, i32 0, i32 4
  %68 = load ptr, ptr %67, align 8, !tbaa !20
  call void @WebPSafeFree(ptr noundef %68)
  %69 = load ptr, ptr %6, align 8, !tbaa !26
  %70 = load ptr, ptr %4, align 8, !tbaa !3
  %71 = getelementptr inbounds nuw %struct.VP8BitWriter, ptr %70, i32 0, i32 4
  store ptr %69, ptr %71, align 8, !tbaa !20
  %72 = load i64, ptr %7, align 8, !tbaa !18
  %73 = load ptr, ptr %4, align 8, !tbaa !3
  %74 = getelementptr inbounds nuw %struct.VP8BitWriter, ptr %73, i32 0, i32 6
  store i64 %72, ptr %74, align 8, !tbaa !24
  store i32 1, ptr %3, align 4
  store i32 1, ptr %10, align 4
  br label %75

75:                                               ; preds = %65, %49, %29, %20
  call void @llvm.lifetime.end.p0(i64 8, ptr %9) #6
  call void @llvm.lifetime.end.p0(i64 8, ptr %8) #6
  call void @llvm.lifetime.end.p0(i64 8, ptr %7) #6
  call void @llvm.lifetime.end.p0(i64 8, ptr %6) #6
  %76 = load i32, ptr %3, align 4
  ret i32 %76
}

; Function Attrs: nounwind uwtable
define hidden i32 @VP8BitWriterAppend(ptr noundef %0, ptr noundef %1, i64 noundef %2) #0 {
  %4 = alloca i32, align 4
  %5 = alloca ptr, align 8
  %6 = alloca ptr, align 8
  %7 = alloca i64, align 8
  store ptr %0, ptr %5, align 8, !tbaa !3
  store ptr %1, ptr %6, align 8, !tbaa !26
  store i64 %2, ptr %7, align 8, !tbaa !18
  %8 = load ptr, ptr %5, align 8, !tbaa !3
  %9 = getelementptr inbounds nuw %struct.VP8BitWriter, ptr %8, i32 0, i32 3
  %10 = load i32, ptr %9, align 4, !tbaa !16
  %11 = icmp ne i32 %10, -8
  br i1 %11, label %12, label %13

12:                                               ; preds = %3
  store i32 0, ptr %4, align 4
  br label %34

13:                                               ; preds = %3
  %14 = load ptr, ptr %5, align 8, !tbaa !3
  %15 = load i64, ptr %7, align 8, !tbaa !18
  %16 = call i32 @BitWriterResize(ptr noundef %14, i64 noundef %15)
  %17 = icmp ne i32 %16, 0
  br i1 %17, label %19, label %18

18:                                               ; preds = %13
  store i32 0, ptr %4, align 4
  br label %34

19:                                               ; preds = %13
  %20 = load ptr, ptr %5, align 8, !tbaa !3
  %21 = getelementptr inbounds nuw %struct.VP8BitWriter, ptr %20, i32 0, i32 4
  %22 = load ptr, ptr %21, align 8, !tbaa !20
  %23 = load ptr, ptr %5, align 8, !tbaa !3
  %24 = getelementptr inbounds nuw %struct.VP8BitWriter, ptr %23, i32 0, i32 5
  %25 = load i64, ptr %24, align 8, !tbaa !17
  %26 = getelementptr inbounds nuw i8, ptr %22, i64 %25
  %27 = load ptr, ptr %6, align 8, !tbaa !26
  %28 = load i64, ptr %7, align 8, !tbaa !18
  call void @llvm.memcpy.p0.p0.i64(ptr align 1 %26, ptr align 1 %27, i64 %28, i1 false)
  %29 = load i64, ptr %7, align 8, !tbaa !18
  %30 = load ptr, ptr %5, align 8, !tbaa !3
  %31 = getelementptr inbounds nuw %struct.VP8BitWriter, ptr %30, i32 0, i32 5
  %32 = load i64, ptr %31, align 8, !tbaa !17
  %33 = add i64 %32, %29
  store i64 %33, ptr %31, align 8, !tbaa !17
  store i32 1, ptr %4, align 4
  br label %34

34:                                               ; preds = %19, %18, %12
  %35 = load i32, ptr %4, align 4
  ret i32 %35
}