; Function Attrs: nounwind uwtable
define hidden range(i32 0, 2) i32 @VP8BitWriterAppend(ptr noundef captures(none) %0, ptr noundef readonly captures(none) %1, i64 noundef %2) local_unnamed_addr #0 {
  %4 = getelementptr inbounds nuw i8, ptr %0, i64 12
  %5 = load i32, ptr %4, align 4, !tbaa !13
  %.not = icmp eq i32 %5, -8
  br i1 %.not, label %6, label %31

6:                                                ; preds = %3
  %7 = getelementptr inbounds nuw i8, ptr %0, i64 24
  %8 = load i64, ptr %7, align 8, !tbaa !14
  %9 = add i64 %8, %2
  %10 = getelementptr inbounds nuw i8, ptr %0, i64 32
  %11 = load i64, ptr %10, align 8, !tbaa !16
  %.not.i = icmp ugt i64 %9, %11
  br i1 %.not.i, label %12, label %._crit_edge

._crit_edge:                                      ; preds = %6
  %.phi.trans.insert = getelementptr inbounds nuw i8, ptr %0, i64 16
  %.pre = load ptr, ptr %.phi.trans.insert, align 8, !tbaa !17
  br label %25

12:                                               ; preds = %6
  %13 = shl i64 %11, 1
  %spec.select.i = tail call i64 @llvm.umax.i64(i64 %13, i64 %9)
  %spec.store.select.i = tail call i64 @llvm.umax.i64(i64 %spec.select.i, i64 1024)
  %14 = tail call ptr @WebPSafeMalloc(i64 noundef 1, i64 noundef %spec.store.select.i) #7
  %15 = icmp eq ptr %14, null
  br i1 %15, label %BitWriterResize.exit, label %16

16:                                               ; preds = %12
  %17 = load i64, ptr %7, align 8, !tbaa !14
  %.not31.i = icmp eq i64 %17, 0
  br i1 %.not31.i, label %21, label %18

18:                                               ; preds = %16
  %19 = getelementptr inbounds nuw i8, ptr %0, i64 16
  %20 = load ptr, ptr %19, align 8, !tbaa !17
  tail call void @llvm.memcpy.p0.p0.i64(ptr nonnull align 1 %14, ptr align 1 %20, i64 %17, i1 false)
  br label %21

21:                                               ; preds = %18, %16
  %22 = getelementptr inbounds nuw i8, ptr %0, i64 16
  %23 = load ptr, ptr %22, align 8, !tbaa !17
  tail call void @WebPSafeFree(ptr noundef %23) #7
  store ptr %14, ptr %22, align 8, !tbaa !17
  store i64 %spec.store.select.i, ptr %10, align 8, !tbaa !16
  %.pre12 = load i64, ptr %7, align 8, !tbaa !14
  br label %25

BitWriterResize.exit:                             ; preds = %12
  %24 = getelementptr inbounds nuw i8, ptr %0, i64 40
  store i32 1, ptr %24, align 8, !tbaa !18
  br label %31

25:                                               ; preds = %._crit_edge, %21
  %26 = phi i64 [ %8, %._crit_edge ], [ %.pre12, %21 ]
  %27 = phi ptr [ %.pre, %._crit_edge ], [ %14, %21 ]
  %28 = getelementptr inbounds nuw i8, ptr %27, i64 %26
  tail call void @llvm.memcpy.p0.p0.i64(ptr align 1 %28, ptr align 1 %1, i64 %2, i1 false)
  %29 = load i64, ptr %7, align 8, !tbaa !14
  %30 = add i64 %29, %2
  store i64 %30, ptr %7, align 8, !tbaa !14
  br label %31

31:                                               ; preds = %BitWriterResize.exit, %3, %25
  %.0 = phi i32 [ 1, %25 ], [ 0, %3 ], [ 0, %BitWriterResize.exit ]
  ret i32 %.0
}